target datalayout = "e-m:e-p270:32:32-p271:32:32-p272:64:64-i64:64-i128:128-f80:128-n8:16:32:64-S128"
target triple = "x86_64-pc-linux-gnu"

%struct.Gia_Man_t_ = type { ptr, ptr, i32, i32, i32, i32, ptr, ptr, i32, i32, i32, ptr, ptr, %struct.Vec_Int_t_, %struct.Vec_Int_t_, i32, i32, i32, %struct.Vec_Int_t_, ptr, ptr, ptr, i32, i32, i32, i32, ptr, ptr, ptr, ptr, ptr, i32, i32, ptr, i32, ptr, ptr, ptr, ptr, ptr, ptr, ptr, ptr, ptr, ptr, ptr, ptr, ptr, ptr, ptr, ptr, ptr, ptr, %struct.Vec_Int_t_, %struct.Vec_Int_t_, ptr, ptr, ptr, ptr, ptr, ptr, ptr, ptr, ptr, ptr, ptr, ptr, ptr, ptr, ptr, ptr, ptr, ptr, ptr, ptr, ptr, i32, float, float, ptr, ptr, i32, ptr, ptr, ptr, ptr, ptr, ptr, ptr, ptr, ptr, ptr, ptr, ptr, ptr, ptr, ptr, i64, i64, ptr, ptr, i32, i32, i32, i32, i32, i32, i32, i32, i32, i32, i32, i32, ptr, ptr, ptr, ptr, ptr, ptr, ptr, ptr, i32, i32, i32, ptr, i32, i32, ptr, ptr, ptr, ptr, ptr, ptr, i32, i32, ptr, %struct.Vec_Int_t_, %struct.Vec_Int_t_, %struct.Vec_Int_t_, ptr, ptr, ptr, i32, i32, i32, i32, ptr, ptr, ptr, ptr, ptr }
%struct.Vec_Int_t_ = type { i32, i32, ptr }
%struct.Swp_Man_t_ = type { ptr, i32, i32, ptr, ptr, ptr, ptr, ptr, ptr, ptr, ptr, ptr, i32, i32, i32, i32, i32, i32, i64, i64, i64, i64, i64, i64, i64 }

@.str.18 = private unnamed_addr constant [20 x i8] c"Dumping logic cones\00", align 1
@.str.19 = private unnamed_addr constant [16 x i8] c" and conditions\00", align 1
@.str.20 = private unnamed_addr constant [18 x i8] c" into file \22%s\22.\0A\00", align 1

; Function Attrs: inlinehint nounwind uwtable
define internal i32 @Gia_ManPoNum(ptr noundef %0) #2 {
  %2 = alloca ptr, align 8
  store ptr %0, ptr %2, align 8, !tbaa !3
  %3 = load ptr, ptr %2, align 8, !tbaa !3
  %4 = getelementptr inbounds nuw %struct.Gia_Man_t_, ptr %3, i32 0, i32 12
  %5 = load ptr, ptr %4, align 8, !tbaa !89
  %6 = call i32 @Vec_IntSize(ptr noundef %5)
  %7 = load ptr, ptr %2, align 8, !tbaa !3
  %8 = getelementptr inbounds nuw %struct.Gia_Man_t_, ptr %7, i32 0, i32 2
  %9 = load i32, ptr %8, align 8, !tbaa !87
  %10 = sub nsw i32 %6, %9
  ret i32 %10
}

; Function Attrs: inlinehint nounwind uwtable
define internal i32 @Vec_IntSize(ptr noundef %0) #2 {
  %2 = alloca ptr, align 8
  store ptr %0, ptr %2, align 8, !tbaa !29
  %3 = load ptr, ptr %2, align 8, !tbaa !29
  %4 = getelementptr inbounds nuw %struct.Vec_Int_t_, ptr %3, i32 0, i32 1
  %5 = load i32, ptr %4, align 4, !tbaa !30
  ret i32 %5
}

; Function Attrs: nounwind uwtable
define ptr @Gia_SweeperCondVector(ptr noundef %0) #0 {
  %2 = alloca ptr, align 8
  %3 = alloca ptr, align 8
  store ptr %0, ptr %2, align 8, !tbaa !3
  call void @llvm.lifetime.start.p0(i64 8, ptr %3) #13
  %4 = load ptr, ptr %2, align 8, !tbaa !3
  %5 = getelementptr inbounds nuw %struct.Gia_Man_t_, ptr %4, i32 0, i32 99
  %6 = load ptr, ptr %5, align 8, !tbaa !33
  store ptr %6, ptr %3, align 8, !tbaa !31
  %7 = load ptr, ptr %3, align 8, !tbaa !31
  %8 = getelementptr inbounds nuw %struct.Swp_Man_t_, ptr %7, i32 0, i32 4
  %9 = load ptr, ptr %8, align 8, !tbaa !39
  call void @llvm.lifetime.end.p0(i64 8, ptr %3) #13
  ret ptr %9
}

; Function Attrs: nounwind uwtable
define void @Gia_SweeperLogicDump(ptr noundef %0, ptr noundef %1, i32 noundef %2, ptr noundef %3) #0 {
  %5 = alloca ptr, align 8
  %6 = alloca ptr, align 8
  %7 = alloca i32, align 4
  %8 = alloca ptr, align 8
  %9 = alloca ptr, align 8
  %10 = alloca ptr, align 8
  %11 = alloca ptr, align 8
  store ptr %0, ptr %5, align 8, !tbaa !3
  store ptr %1, ptr %6, align 8, !tbaa !29
  store i32 %2, ptr %7, align 4, !tbaa !47
  store ptr %3, ptr %8, align 8, !tbaa !66
  call void @llvm.lifetime.start.p0(i64 8, ptr %9) #13
  %12 = load ptr, ptr %5, align 8, !tbaa !3
  %13 = load ptr, ptr %6, align 8, !tbaa !29
  %14 = call ptr @Gia_SweeperExtractUserLogic(ptr noundef %12, ptr noundef %13, ptr noundef null, ptr noundef null)
  store ptr %14, ptr %9, align 8, !tbaa !3
  call void @llvm.lifetime.start.p0(i64 8, ptr %10) #13
  %15 = load ptr, ptr %5, align 8, !tbaa !3
  %16 = call ptr @Gia_SweeperCondVector(ptr noundef %15)
  store ptr %16, ptr %10, align 8, !tbaa !29
  %17 = call i32 (ptr, ...) @printf(ptr noundef @.str.18)
  %18 = load i32, ptr %7, align 4, !tbaa !47
  %19 = icmp ne i32 %18, 0
  br i1 %19, label %20, label %37

20:                                               ; preds = %4
  %21 = load ptr, ptr %10, align 8, !tbaa !29
  %22 = call i32 @Vec_IntSize(ptr noundef %21)
  %23 = icmp sgt i32 %22, 0
  br i1 %23, label %24, label %37

24:                                               ; preds = %20
  call void @llvm.lifetime.start.p0(i64 8, ptr %11) #13
  %25 = load ptr, ptr %5, align 8, !tbaa !3
  %26 = load ptr, ptr %10, align 8, !tbaa !29
  %27 = call ptr @Gia_SweeperExtractUserLogic(ptr noundef %25, ptr noundef %26, ptr noundef null, ptr noundef null)
  store ptr %27, ptr %11, align 8, !tbaa !3
  %28 = load ptr, ptr %9, align 8, !tbaa !3
  %29 = load ptr, ptr %11, align 8, !tbaa !3
  call void @Gia_ManDupAppendShare(ptr noundef %28, ptr noundef %29)
  %30 = load ptr, ptr %11, align 8, !tbaa !3
  %31 = call i32 @Gia_ManPoNum(ptr noundef %30)
  %32 = load ptr, ptr %9, align 8, !tbaa !3
  %33 = getelementptr inbounds nuw %struct.Gia_Man_t_, ptr %32, i32 0, i32 23
  store i32 %31, ptr %33, align 4, !tbaa !96
  %34 = load ptr, ptr %9, align 8, !tbaa !3
  call void @Gia_ManHashStop(ptr noundef %34)
  %35 = load ptr, ptr %11, align 8, !tbaa !3
  call void @Gia_ManStop(ptr noundef %35)
  %36 = call i32 (ptr, ...) @printf(ptr noundef @.str.19)
  call void @llvm.lifetime.end.p0(i64 8, ptr %11) #13
  br label %37

37:                                               ; preds = %24, %20, %4
  %38 = load ptr, ptr %9, align 8, !tbaa !3
  %39 = load ptr, ptr %8, align 8, !tbaa !66
  call void @Gia_AigerWrite(ptr noundef %38, ptr noundef %39, i32 noundef 0, i32 noundef 0, i32 noundef 0)
  %40 = load ptr, ptr %9, align 8, !tbaa !3
  call void @Gia_ManStop(ptr noundef %40)
  %41 = load ptr, ptr %8, align 8, !tbaa !66
  %42 = call i32 (ptr, ...) @printf(ptr noundef @.str.20, ptr noundef %41)
  call void @llvm.lifetime.end.p0(i64 8, ptr %10) #13
  call void @llvm.lifetime.end.p0(i64 8, ptr %9) #13
  ret void
}