; Function Attrs: nounwind uwtable
define void @Gia_SweeperLogicDump(ptr noundef %0, ptr noundef readonly captures(none) %1, i32 noundef %2, ptr noundef %3) local_unnamed_addr #0 {
  %5 = tail call ptr @Gia_SweeperExtractUserLogic(ptr noundef %0, ptr noundef %1, ptr noundef null, ptr noundef null)
  %6 = getelementptr inbounds nuw i8, ptr %0, i64 768
  %7 = load ptr, ptr %6, align 8, !tbaa !10
  %8 = getelementptr inbounds nuw i8, ptr %7, i64 24
  %9 = load ptr, ptr %8, align 8, !tbaa !36
  %10 = tail call i32 (ptr, ...) @printf(ptr noundef nonnull dereferenceable(1) @.str.18)
  %.not = icmp eq i32 %2, 0
  br i1 %.not, label %22, label %11

11:                                               ; preds = %4
  %12 = getelementptr i8, ptr %9, i64 4
  %.val = load i32, ptr %12, align 4, !tbaa !3
  %13 = icmp sgt i32 %.val, 0
  br i1 %13, label %14, label %22

14:                                               ; preds = %11
  %15 = tail call ptr @Gia_SweeperExtractUserLogic(ptr noundef nonnull %0, ptr noundef nonnull %9, ptr noundef null, ptr noundef null)
  tail call void @Gia_ManDupAppendShare(ptr noundef %5, ptr noundef %15) #23
  %16 = getelementptr i8, ptr %15, i64 16
  %.val16 = load i32, ptr %16, align 8, !tbaa !73
  %17 = getelementptr i8, ptr %15, i64 72
  %.val17 = load ptr, ptr %17, align 8, !tbaa !94
  %18 = getelementptr i8, ptr %.val17, i64 4
  %.val17.val = load i32, ptr %18, align 4, !tbaa !3
  %19 = sub nsw i32 %.val17.val, %.val16
  %20 = getelementptr inbounds nuw i8, ptr %5, i64 172
  store i32 %19, ptr %20, align 4, !tbaa !96
  tail call void @Gia_ManHashStop(ptr noundef %5) #23
  tail call void @Gia_ManStop(ptr noundef %15) #23
  %21 = tail call i32 (ptr, ...) @printf(ptr noundef nonnull dereferenceable(1) @.str.19)
  br label %22

22:                                               ; preds = %14, %11, %4
  tail call void @Gia_AigerWrite(ptr noundef %5, ptr noundef %3, i32 noundef 0, i32 noundef 0, i32 noundef 0) #23
  tail call void @Gia_ManStop(ptr noundef %5) #23
  %23 = tail call i32 (ptr, ...) @printf(ptr noundef nonnull dereferenceable(1) @.str.20, ptr noundef %3)
  ret void
}